target datalayout = "e-m:e-p270:32:32-p271:32:32-p272:64:64-i64:64-i128:128-f80:128-n8:16:32:64-S128"
target triple = "x86_64-pc-linux-gnu"

%struct.evp_pkey_st = type { i32, i32, %union.anon, ptr }
%union.anon = type { ptr }
%struct.EVP_PKEY_PRINT_METHOD = type { i32, ptr, ptr, ptr }

@.str.1 = private unnamed_addr constant [12 x i8] c"Private Key\00", align 1
@kPrintMethodsLen = internal global i64 3, align 8
@.str.41 = private unnamed_addr constant [26 x i8] c"%s algorithm unsupported\0A\00", align 1

; Function Attrs: nounwind uwtable
define internal i32 @print_unsupported(ptr noundef %0, ptr noundef %1, i32 noundef %2, ptr noundef %3) #0 {
  %5 = alloca ptr, align 8
  %6 = alloca ptr, align 8
  %7 = alloca i32, align 4
  %8 = alloca ptr, align 8
  store ptr %0, ptr %5, align 8, !tbaa !6
  store ptr %1, ptr %6, align 8, !tbaa !11
  store i32 %2, ptr %7, align 4, !tbaa !13
  store ptr %3, ptr %8, align 8, !tbaa !28
  %9 = load ptr, ptr %5, align 8, !tbaa !6
  %10 = load i32, ptr %7, align 4, !tbaa !13
  %11 = call i32 @BIO_indent(ptr noundef %9, i32 noundef %10, i32 noundef 128)
  %12 = load ptr, ptr %5, align 8, !tbaa !6
  %13 = load ptr, ptr %8, align 8, !tbaa !28
  %14 = call i32 (ptr, ptr, ...) @BIO_printf(ptr noundef %12, ptr noundef @.str.41, ptr noundef %13)
  ret i32 1
}

; Function Attrs: nounwind uwtable
define internal ptr @find_method(i32 noundef %0) #0 {
  %2 = alloca ptr, align 8
  %3 = alloca i32, align 4
  %4 = alloca i64, align 8
  %5 = alloca i32, align 4
  store i32 %0, ptr %3, align 4, !tbaa !13
  call void @llvm.lifetime.start.p0(i64 8, ptr %4) #5
  store i64 0, ptr %4, align 8, !tbaa !23
  br label %6

6:                                                ; preds = %21, %1
  %7 = load i64, ptr %4, align 8, !tbaa !23
  %8 = load i64, ptr @kPrintMethodsLen, align 8, !tbaa !23
  %9 = icmp ult i64 %7, %8
  br i1 %9, label %10, label %24

10:                                               ; preds = %6
  %11 = load i64, ptr %4, align 8, !tbaa !23
  %12 = getelementptr inbounds nuw [3 x %struct.EVP_PKEY_PRINT_METHOD], ptr @kPrintMethods, i64 0, i64 %11
  %13 = getelementptr inbounds nuw %struct.EVP_PKEY_PRINT_METHOD, ptr %12, i32 0, i32 0
  %14 = load i32, ptr %13, align 16, !tbaa !25
  %15 = load i32, ptr %3, align 4, !tbaa !13
  %16 = icmp eq i32 %14, %15
  br i1 %16, label %17, label %20

17:                                               ; preds = %10
  %18 = load i64, ptr %4, align 8, !tbaa !23
  %19 = getelementptr inbounds nuw [3 x %struct.EVP_PKEY_PRINT_METHOD], ptr @kPrintMethods, i64 0, i64 %18
  store ptr %19, ptr %2, align 8
  store i32 1, ptr %5, align 4
  br label %25

20:                                               ; preds = %10
  br label %21

21:                                               ; preds = %20
  %22 = load i64, ptr %4, align 8, !tbaa !23
  %23 = add i64 %22, 1
  store i64 %23, ptr %4, align 8, !tbaa !23
  br label %6, !llvm.loop !26

24:                                               ; preds = %6
  store ptr null, ptr %2, align 8
  store i32 1, ptr %5, align 4
  br label %25

25:                                               ; preds = %24, %17
  call void @llvm.lifetime.end.p0(i64 8, ptr %4) #5
  %26 = load ptr, ptr %2, align 8
  ret ptr %26
}

; Function Attrs: nounwind uwtable
define hidden i32 @EVP_PKEY_print_private(ptr noundef %0, ptr noundef %1, i32 noundef %2, ptr noundef %3) #0 {
  %5 = alloca i32, align 4
  %6 = alloca ptr, align 8
  %7 = alloca ptr, align 8
  %8 = alloca i32, align 4
  %9 = alloca ptr, align 8
  %10 = alloca ptr, align 8
  %11 = alloca i32, align 4
  store ptr %0, ptr %6, align 8, !tbaa !6
  store ptr %1, ptr %7, align 8, !tbaa !11
  store i32 %2, ptr %8, align 4, !tbaa !13
  store ptr %3, ptr %9, align 8, !tbaa !15
  call void @llvm.lifetime.start.p0(i64 8, ptr %10) #5
  %12 = load ptr, ptr %7, align 8, !tbaa !11
  %13 = getelementptr inbounds nuw %struct.evp_pkey_st, ptr %12, i32 0, i32 1
  %14 = load i32, ptr %13, align 4, !tbaa !17
  %15 = call ptr @find_method(i32 noundef %14)
  store ptr %15, ptr %10, align 8, !tbaa !20
  %16 = load ptr, ptr %10, align 8, !tbaa !20
  %17 = icmp ne ptr %16, null
  br i1 %17, label %18, label %32

18:                                               ; preds = %4
  %19 = load ptr, ptr %10, align 8, !tbaa !20
  %20 = getelementptr inbounds nuw %struct.EVP_PKEY_PRINT_METHOD, ptr %19, i32 0, i32 2
  %21 = load ptr, ptr %20, align 8, !tbaa !30
  %22 = icmp ne ptr %21, null
  br i1 %22, label %23, label %32

23:                                               ; preds = %18
  %24 = load ptr, ptr %10, align 8, !tbaa !20
  %25 = getelementptr inbounds nuw %struct.EVP_PKEY_PRINT_METHOD, ptr %24, i32 0, i32 2
  %26 = load ptr, ptr %25, align 8, !tbaa !30
  %27 = load ptr, ptr %6, align 8, !tbaa !6
  %28 = load ptr, ptr %7, align 8, !tbaa !11
  %29 = load i32, ptr %8, align 4, !tbaa !13
  %30 = load ptr, ptr %9, align 8, !tbaa !15
  %31 = call i32 %26(ptr noundef %27, ptr noundef %28, i32 noundef %29, ptr noundef %30)
  store i32 %31, ptr %5, align 4
  store i32 1, ptr %11, align 4
  br label %37

32:                                               ; preds = %18, %4
  %33 = load ptr, ptr %6, align 8, !tbaa !6
  %34 = load ptr, ptr %7, align 8, !tbaa !11
  %35 = load i32, ptr %8, align 4, !tbaa !13
  %36 = call i32 @print_unsupported(ptr noundef %33, ptr noundef %34, i32 noundef %35, ptr noundef @.str.1)
  store i32 %36, ptr %5, align 4
  store i32 1, ptr %11, align 4
  br label %37

37:                                               ; preds = %32, %23
  call void @llvm.lifetime.end.p0(i64 8, ptr %10) #5
  %38 = load i32, ptr %5, align 4
  ret i32 %38
}